; Function Attrs: mustprogress uwtable
define dso_local noundef zeroext i1 @_ZNK24cmCPackExternalGenerator14StagingEnabledEv(ptr noundef nonnull align 8 dereferenceable(368) %0) local_unnamed_addr #3 align 2 personality ptr @__gxx_personality_v0 {
  %2 = alloca %"class.std::__cxx11::basic_string", align 8
  %3 = alloca %"class.std::allocator", align 1
  call void @_ZNSaIcEC1Ev(ptr noundef nonnull align 1 dereferenceable(1) %3) #15
  %4 = invoke noundef ptr @_ZNSt7__cxx1112basic_stringIcSt11char_traitsIcESaIcEE13_M_local_dataEv(ptr noundef nonnull align 8 dereferenceable(32) %2)
          to label %.noexc unwind label %17

.noexc:                                           ; preds = %1
  invoke void @_ZNSt7__cxx1112basic_stringIcSt11char_traitsIcESaIcEE12_Alloc_hiderC1EPcRKS3_(ptr noundef nonnull align 8 dereferenceable(8) %2, ptr noundef %4, ptr noundef nonnull align 1 dereferenceable(1) %3)
          to label %.noexc4 unwind label %17

.noexc4:                                          ; preds = %.noexc
  invoke void @_ZNSt7__cxx1112basic_stringIcSt11char_traitsIcESaIcEE12_M_constructIPKcEEvT_S8_St20forward_iterator_tag(ptr noundef nonnull align 8 dereferenceable(32) %2, ptr noundef nonnull @.str.13, ptr noundef nonnull getelementptr inbounds ([30 x i8], ptr @.str.13, i64 0, i64 29))
          to label %_ZNSt7__cxx1112basic_stringIcSt11char_traitsIcESaIcEEC2IS3_EEPKcRKS3_.exit unwind label %5

5:                                                ; preds = %.noexc4
  %6 = landingpad { ptr, i32 }
          cleanup
  call void @_ZNSaIcED2Ev(ptr noundef nonnull align 1 dereferenceable(1) %2) #15
  br label %.body

_ZNSt7__cxx1112basic_stringIcSt11char_traitsIcESaIcEEC2IS3_EEPKcRKS3_.exit: ; preds = %.noexc4
  %7 = invoke ptr @_ZNK16cmCPackGenerator9GetOptionERKNSt7__cxx1112basic_stringIcSt11char_traitsIcESaIcEEE(ptr noundef nonnull align 8 dereferenceable(360) %0, ptr noundef nonnull align 8 dereferenceable(32) %2)
          to label %8 unwind label %19

8:                                                ; preds = %_ZNSt7__cxx1112basic_stringIcSt11char_traitsIcESaIcEEC2IS3_EEPKcRKS3_.exit
  %9 = icmp eq ptr %7, null
  br i1 %9, label %_Z7cmIsOff7cmValue.exit, label %10

10:                                               ; preds = %8
  %11 = call { i64, ptr } @_ZNKSt7__cxx1112basic_stringIcSt11char_traitsIcESaIcEEcvSt17basic_string_viewIcS2_EEv(ptr noundef nonnull align 8 dereferenceable(32) %7) #15
  %12 = extractvalue { i64, ptr } %11, 0
  %13 = extractvalue { i64, ptr } %11, 1
  %14 = call noundef zeroext i1 @_ZN7cmValue5IsOffESt17basic_string_viewIcSt11char_traitsIcEE(i64 %12, ptr %13) #15
  %15 = xor i1 %14, true
  br label %_Z7cmIsOff7cmValue.exit

_Z7cmIsOff7cmValue.exit:                          ; preds = %8, %10
  %16 = phi i1 [ false, %8 ], [ %15, %10 ]
  call void @_ZNSt7__cxx1112basic_stringIcSt11char_traitsIcESaIcEED1Ev(ptr noundef nonnull align 8 dereferenceable(32) %2) #15
  call void @_ZNSaIcED1Ev(ptr noundef nonnull align 1 dereferenceable(1) %3) #15
  ret i1 %16

17:                                               ; preds = %.noexc, %1
  %18 = landingpad { ptr, i32 }
          cleanup
  br label %.body

19:                                               ; preds = %_ZNSt7__cxx1112basic_stringIcSt11char_traitsIcESaIcEEC2IS3_EEPKcRKS3_.exit
  %20 = landingpad { ptr, i32 }
          cleanup
  call void @_ZNSt7__cxx1112basic_stringIcSt11char_traitsIcESaIcEED1Ev(ptr noundef nonnull align 8 dereferenceable(32) %2) #15
  br label %.body

.body:                                            ; preds = %17, %5, %19
  %.pn = phi { ptr, i32 } [ %20, %19 ], [ %18, %17 ], [ %6, %5 ]
  call void @_ZNSaIcED1Ev(ptr noundef nonnull align 1 dereferenceable(1) %3) #15
  resume { ptr, i32 } %.pn
}